target datalayout = "e-m:e-p270:32:32-p271:32:32-p272:64:64-i64:64-i128:128-f80:128-n8:16:32:64-S128"
target triple = "x86_64-pc-linux-gnu"

%struct.mbedtls_mpi = type { ptr, i16, i16 }
%union.mbedtls_ssl_user_data_t = type { i64 }
%struct.mbedtls_ssl_context = type { ptr, i32, i32, i32, i32, i32, ptr, ptr, ptr, ptr, ptr, ptr, ptr, ptr, ptr, ptr, ptr, ptr, ptr, ptr, ptr, ptr, ptr, ptr, ptr, ptr, ptr, ptr, ptr, ptr, ptr, ptr, ptr, i32, i64, i64, i16, i64, i64, i64, i64, i32, i32, i8, i8, i32, i8, ptr, ptr, ptr, ptr, ptr, ptr, ptr, i32, i64, i64, [8 x i8], i16, ptr, ptr, ptr, i64, i32, i64, [12 x i8], [12 x i8], [32 x i8], i8, i8, ptr, ptr, %union.mbedtls_ssl_user_data_t }
%struct.mbedtls_md_context_t = type { ptr, ptr, ptr }
%struct.mbedtls_ssl_handshake_params = type { i8, i8, i8, i8, i8, i32, i8, i8, i8, i8, ptr, ptr, ptr, ptr, ptr, i8, i8, i8, i8, i16, i16, [20 x i16], ptr, ptr, %struct.mbedtls_dhm_context, %struct.mbedtls_ecdh_context, i16, i64, i32, i8, [1024 x i8], i64, ptr, ptr, i64, i16, ptr, ptr, ptr, ptr, %struct.anon, ptr, i16, i8, i32, i32, i32, ptr, ptr, ptr, i32, ptr, [8 x i8], i8, [32 x i8], i8, i16, %struct.mbedtls_md_context_t, %struct.mbedtls_md_context_t, i16, i8, %union.anon.1, [64 x i8], [1076 x i8], i64, i32, i32, i8, ptr, ptr, %union.anon.4, %struct.mbedtls_ssl_tls13_handshake_secrets, ptr, i64, ptr }
%struct.mbedtls_dhm_context = type { %struct.mbedtls_mpi, %struct.mbedtls_mpi, %struct.mbedtls_mpi, %struct.mbedtls_mpi, %struct.mbedtls_mpi, %struct.mbedtls_mpi, %struct.mbedtls_mpi, %struct.mbedtls_mpi, %struct.mbedtls_mpi, %struct.mbedtls_mpi }
%struct.mbedtls_ecdh_context = type { i8, i32, i32, %union.anon }
%union.anon = type { %struct.mbedtls_ecdh_context_mbed }
%struct.mbedtls_ecdh_context_mbed = type { %struct.mbedtls_ecp_group, %struct.mbedtls_mpi, %struct.mbedtls_ecp_point, %struct.mbedtls_ecp_point, %struct.mbedtls_mpi }
%struct.mbedtls_ecp_group = type { i32, %struct.mbedtls_mpi, %struct.mbedtls_mpi, %struct.mbedtls_mpi, %struct.mbedtls_ecp_point, %struct.mbedtls_mpi, i64, i64, i32, ptr, ptr, ptr, ptr, ptr, i64 }
%struct.mbedtls_ecp_point = type { %struct.mbedtls_mpi, %struct.mbedtls_mpi, %struct.mbedtls_mpi }
%struct.anon = type { i64, i8, [4 x %struct.mbedtls_ssl_hs_buffer], %struct.anon.0 }
%struct.mbedtls_ssl_hs_buffer = type { i8, ptr, i64 }
%struct.anon.0 = type { ptr, i64, i32 }
%union.anon.1 = type { %struct.anon.2 }
%struct.anon.2 = type { i8, [64 x i8], i64 }
%union.anon.4 = type { [64 x i8] }
%struct.mbedtls_ssl_tls13_handshake_secrets = type { [64 x i8], [64 x i8] }

; Function Attrs: nounwind uwtable
define hidden i32 @mbedtls_ssl_md_alg_from_hash(i8 noundef zeroext %0) #0 {
  %2 = alloca i32, align 4
  %3 = alloca i8, align 1
  store i8 %0, ptr %3, align 1, !tbaa !87
  %4 = load i8, ptr %3, align 1, !tbaa !87
  %5 = zext i8 %4 to i32
  switch i32 %5, label %12 [
    i32 1, label %6
    i32 2, label %7
    i32 3, label %8
    i32 4, label %9
    i32 5, label %10
    i32 6, label %11
  ]

6:                                                ; preds = %1
  store i32 3, ptr %2, align 4
  br label %13

7:                                                ; preds = %1
  store i32 5, ptr %2, align 4
  br label %13

8:                                                ; preds = %1
  store i32 8, ptr %2, align 4
  br label %13

9:                                                ; preds = %1
  store i32 9, ptr %2, align 4
  br label %13

10:                                               ; preds = %1
  store i32 10, ptr %2, align 4
  br label %13

11:                                               ; preds = %1
  store i32 11, ptr %2, align 4
  br label %13

12:                                               ; preds = %1
  store i32 0, ptr %2, align 4
  br label %13

13:                                               ; preds = %12, %11, %10, %9, %8, %7, %6
  %14 = load i32, ptr %2, align 4
  ret i32 %14
}

; Function Attrs: nounwind uwtable
define hidden i32 @mbedtls_ssl_tls12_get_preferred_hash_for_sig_alg(ptr noundef %0, i32 noundef %1) #0 {
  %3 = alloca i32, align 4
  %4 = alloca ptr, align 8
  %5 = alloca i32, align 4
  %6 = alloca i32, align 4
  %7 = alloca ptr, align 8
  %8 = alloca i32, align 4
  %9 = alloca i32, align 4
  %10 = alloca i32, align 4
  %11 = alloca i32, align 4
  store ptr %0, ptr %4, align 8, !tbaa !27
  store i32 %1, ptr %5, align 4, !tbaa !10
  call void @llvm.lifetime.start.p0(i64 4, ptr %6) #11
  call void @llvm.lifetime.start.p0(i64 8, ptr %7) #11
  %12 = load ptr, ptr %4, align 8, !tbaa !27
  %13 = getelementptr inbounds nuw %struct.mbedtls_ssl_context, ptr %12, i32 0, i32 16
  %14 = load ptr, ptr %13, align 8, !tbaa !78
  %15 = getelementptr inbounds nuw %struct.mbedtls_ssl_handshake_params, ptr %14, i32 0, i32 21
  %16 = getelementptr inbounds [20 x i16], ptr %15, i64 0, i64 0
  store ptr %16, ptr %7, align 8, !tbaa !114
  %17 = load i32, ptr %5, align 4, !tbaa !10
  %18 = icmp eq i32 %17, 0
  br i1 %18, label %19, label %20

19:                                               ; preds = %2
  store i32 0, ptr %3, align 4
  store i32 1, ptr %8, align 4
  br label %64

20:                                               ; preds = %2
  store i32 0, ptr %6, align 4, !tbaa !10
  br label %21

21:                                               ; preds = %60, %20
  %22 = load ptr, ptr %7, align 8, !tbaa !114
  %23 = load i32, ptr %6, align 4, !tbaa !10
  %24 = zext i32 %23 to i64
  %25 = getelementptr inbounds nuw i16, ptr %22, i64 %24
  %26 = load i16, ptr %25, align 2, !tbaa !115
  %27 = zext i16 %26 to i32
  %28 = icmp ne i32 %27, 0
  br i1 %28, label %29, label %63

29:                                               ; preds = %21
  call void @llvm.lifetime.start.p0(i64 4, ptr %9) #11
  %30 = load ptr, ptr %7, align 8, !tbaa !114
  %31 = load i32, ptr %6, align 4, !tbaa !10
  %32 = zext i32 %31 to i64
  %33 = getelementptr inbounds nuw i16, ptr %30, i64 %32
  %34 = load i16, ptr %33, align 2, !tbaa !115
  %35 = zext i16 %34 to i32
  %36 = ashr i32 %35, 8
  store i32 %36, ptr %9, align 4, !tbaa !10
  call void @llvm.lifetime.start.p0(i64 4, ptr %10) #11
  %37 = load ptr, ptr %7, align 8, !tbaa !114
  %38 = load i32, ptr %6, align 4, !tbaa !10
  %39 = zext i32 %38 to i64
  %40 = getelementptr inbounds nuw i16, ptr %37, i64 %39
  %41 = load i16, ptr %40, align 2, !tbaa !115
  %42 = zext i16 %41 to i32
  %43 = and i32 %42, 255
  store i32 %43, ptr %10, align 4, !tbaa !10
  call void @llvm.lifetime.start.p0(i64 4, ptr %11) #11
  %44 = load i32, ptr %9, align 4, !tbaa !10
  %45 = trunc i32 %44 to i8
  %46 = call i32 @mbedtls_ssl_md_alg_from_hash(i8 noundef zeroext %45)
  store i32 %46, ptr %11, align 4, !tbaa !10
  %47 = load i32, ptr %11, align 4, !tbaa !10
  %48 = icmp eq i32 %47, 0
  br i1 %48, label %49, label %50

49:                                               ; preds = %29
  store i32 4, ptr %8, align 4
  br label %57

50:                                               ; preds = %29
  %51 = load i32, ptr %5, align 4, !tbaa !10
  %52 = load i32, ptr %10, align 4, !tbaa !10
  %53 = icmp eq i32 %51, %52
  br i1 %53, label %54, label %56

54:                                               ; preds = %50
  %55 = load i32, ptr %9, align 4, !tbaa !10
  store i32 %55, ptr %3, align 4
  store i32 1, ptr %8, align 4
  br label %57

56:                                               ; preds = %50
  store i32 0, ptr %8, align 4
  br label %57

57:                                               ; preds = %56, %54, %49
  call void @llvm.lifetime.end.p0(i64 4, ptr %11) #11
  call void @llvm.lifetime.end.p0(i64 4, ptr %10) #11
  call void @llvm.lifetime.end.p0(i64 4, ptr %9) #11
  %58 = load i32, ptr %8, align 4
  switch i32 %58, label %64 [
    i32 0, label %59
    i32 4, label %60
  ]

59:                                               ; preds = %57
  br label %60

60:                                               ; preds = %59, %57
  %61 = load i32, ptr %6, align 4, !tbaa !10
  %62 = add i32 %61, 1
  store i32 %62, ptr %6, align 4, !tbaa !10
  br label %21, !llvm.loop !310

63:                                               ; preds = %21
  store i32 0, ptr %3, align 4
  store i32 1, ptr %8, align 4
  br label %64

64:                                               ; preds = %63, %57, %19
  call void @llvm.lifetime.end.p0(i64 8, ptr %7) #11
  call void @llvm.lifetime.end.p0(i64 4, ptr %6) #11
  %65 = load i32, ptr %3, align 4
  ret i32 %65
}