; Function Attrs: nofree norecurse nosync nounwind memory(read, inaccessiblemem: none) uwtable
define hidden range(i32 0, 256) i32 @mbedtls_ssl_tls12_get_preferred_hash_for_sig_alg(ptr noundef readonly captures(none) %0, i32 noundef %1) local_unnamed_addr #20 {
  %3 = getelementptr inbounds nuw i8, ptr %0, i64 112
  %4 = load ptr, ptr %3, align 8, !tbaa !70
  %5 = getelementptr inbounds nuw i8, ptr %4, i64 64
  %6 = icmp eq i32 %1, 0
  br i1 %6, label %.loopexit, label %.preheader

.preheader:                                       ; preds = %2
  %7 = load i16, ptr %5, align 2, !tbaa !102
  %.not25 = icmp eq i16 %7, 0
  br i1 %.not25, label %.loopexit, label %.lr.ph

.lr.ph:                                           ; preds = %.preheader, %mbedtls_ssl_md_alg_from_hash.exit.thread
  %8 = phi i16 [ %16, %mbedtls_ssl_md_alg_from_hash.exit.thread ], [ %7, %.preheader ]
  %.01526 = phi i32 [ %13, %mbedtls_ssl_md_alg_from_hash.exit.thread ], [ 0, %.preheader ]
  %9 = zext i16 %8 to i32
  %10 = lshr i32 %9, 8
  %11 = trunc nuw i32 %10 to i8
  %.off = add i8 %11, -1
  %switch = icmp ult i8 %.off, 6
  %12 = and i32 %9, 255
  %.not29 = icmp eq i32 %1, %12
  %or.cond = and i1 %switch, %.not29
  br i1 %or.cond, label %.loopexit, label %mbedtls_ssl_md_alg_from_hash.exit.thread

mbedtls_ssl_md_alg_from_hash.exit.thread:         ; preds = %.lr.ph
  %13 = add i32 %.01526, 1
  %14 = zext i32 %13 to i64
  %15 = getelementptr inbounds nuw i16, ptr %5, i64 %14
  %16 = load i16, ptr %15, align 2, !tbaa !102
  %.not = icmp eq i16 %16, 0
  br i1 %.not, label %.loopexit, label %.lr.ph, !llvm.loop !289

.loopexit:                                        ; preds = %mbedtls_ssl_md_alg_from_hash.exit.thread, %.lr.ph, %.preheader, %2
  %.0 = phi i32 [ 0, %2 ], [ 0, %.preheader ], [ 0, %mbedtls_ssl_md_alg_from_hash.exit.thread ], [ %10, %.lr.ph ]
  ret i32 %.0
}